; Function Attrs: nounwind sspstrong uwtable
define internal i64 @range_eq(i64 noundef %0, i64 noundef %1) #0 {
  %3 = icmp eq i64 %0, %1
  br i1 %3, label %9, label %4

4:                                                ; preds = %2
  %5 = load i64, ptr @rb_cRange, align 8, !tbaa !7
  %6 = tail call i64 @rb_obj_is_kind_of(i64 noundef %1, i64 noundef %5) #13
  %.not = icmp eq i64 %6, 0
  br i1 %.not, label %9, label %7

7:                                                ; preds = %4
  %8 = tail call i64 @rb_exec_recursive_paired(ptr noundef nonnull @recursive_equal, i64 noundef %0, i64 noundef %1, i64 noundef %1) #13
  br label %9

9:                                                ; preds = %4, %2, %7
  %.0 = phi i64 [ %8, %7 ], [ 20, %2 ], [ 0, %4 ]
  ret i64 %.0
}